target datalayout = "e-m:e-p270:32:32-p271:32:32-p272:64:64-i64:64-i128:128-f80:128-n8:16:32:64-S128"
target triple = "x86_64-unknown-linux-gnu"

%struct.QTailQLink = type { ptr, ptr }
%struct.BlockDriverState = type { i32, i8, i8, i8, i8, i8, ptr, ptr, ptr, %struct.anon.0, i8, [4096 x i8], [4096 x i8], [4096 x i8], [16 x i8], ptr, [4096 x i8], %struct.BlockLimits, i32, i32, i32, i32, [32 x i8], %union.anon.1, %union.anon.2, %union.anon.3, i32, [16 x %struct.anon.4], ptr, %struct.anon.5, ptr, ptr, %struct.anon.6, ptr, ptr, i32, ptr, i64, i64, %struct.QemuMutex, %struct.anon.7, %struct.Stat64, i32, i32, i32, i32, i32, i32, %struct.QemuMutex, %struct.anon.8, %struct.CoQueue, i8, i32, i8, %struct.CoMutex, ptr, ptr }
%struct.anon.0 = type { ptr }
%struct.BlockLimits = type { i32, i64, i32, i64, i32, i32, i32, i64, i32, i64, i64, i32, i8, i32, i32, i32, i32, i32, i32, i32 }
%union.anon.1 = type { %struct.QTailQLink }
%union.anon.2 = type { %struct.QTailQLink }
%union.anon.3 = type { %struct.QTailQLink }
%struct.anon.4 = type { ptr }
%struct.anon.5 = type { ptr }
%struct.anon.6 = type { ptr }
%struct.anon.7 = type { ptr }
%struct.Stat64 = type { i64 }
%struct.QemuMutex = type { %union.pthread_mutex_t, i8 }
%union.pthread_mutex_t = type { %struct.__pthread_mutex_s }
%struct.__pthread_mutex_s = type { i32, i32, i32, i32, i32, i16, i16, %struct.__pthread_internal_list }
%struct.__pthread_internal_list = type { ptr, ptr }
%struct.anon.8 = type { ptr }
%struct.CoQueue = type { %struct.anon.9 }
%struct.anon.9 = type { ptr, ptr }
%struct.CoMutex = type { i32, ptr, %struct.anon.10, %struct.anon.10, i32, i32, ptr }
%struct.anon.10 = type { ptr }
%struct.BDRVVmdkState = type { %struct.CoMutex, i64, i8, i8, i32, i32, i32, ptr, ptr, ptr }

; Function Attrs: nounwind sspstrong uwtable
define internal i32 @vmdk_co_pwrite_zeroes(ptr noundef %bs, i64 noundef %offset, i64 noundef %bytes, i32 noundef %flags) #0 {
entry:
  %bs.addr = alloca ptr, align 8
  %offset.addr = alloca i64, align 8
  %bytes.addr = alloca i64, align 8
  %flags.addr = alloca i32, align 4
  %ret = alloca i32, align 4
  %s = alloca ptr, align 8
  store ptr %bs, ptr %bs.addr, align 8
  store i64 %offset, ptr %offset.addr, align 8
  store i64 %bytes, ptr %bytes.addr, align 8
  store i32 %flags, ptr %flags.addr, align 4
  %0 = load ptr, ptr %bs.addr, align 8
  %opaque = getelementptr inbounds %struct.BlockDriverState, ptr %0, i32 0, i32 7
  %1 = load ptr, ptr %opaque, align 8
  store ptr %1, ptr %s, align 8
  %2 = load ptr, ptr %s, align 8
  %lock = getelementptr inbounds %struct.BDRVVmdkState, ptr %2, i32 0, i32 0
  call void @qemu_co_mutex_lock(ptr noundef %lock)
  %3 = load ptr, ptr %bs.addr, align 8
  %4 = load i64, ptr %offset.addr, align 8
  %5 = load i64, ptr %bytes.addr, align 8
  %call = call i32 @vmdk_pwritev(ptr noundef %3, i64 noundef %4, i64 noundef %5, ptr noundef null, i1 noundef zeroext true, i1 noundef zeroext true)
  store i32 %call, ptr %ret, align 4
  %6 = load i32, ptr %ret, align 4
  %tobool = icmp ne i32 %6, 0
  br i1 %tobool, label %if.end, label %if.then

if.then:                                          ; preds = %entry
  %7 = load ptr, ptr %bs.addr, align 8
  %8 = load i64, ptr %offset.addr, align 8
  %9 = load i64, ptr %bytes.addr, align 8
  %call1 = call i32 @vmdk_pwritev(ptr noundef %7, i64 noundef %8, i64 noundef %9, ptr noundef null, i1 noundef zeroext true, i1 noundef zeroext false)
  store i32 %call1, ptr %ret, align 4
  br label %if.end

if.end:                                           ; preds = %if.then, %entry
  %10 = load ptr, ptr %s, align 8
  %lock2 = getelementptr inbounds %struct.BDRVVmdkState, ptr %10, i32 0, i32 0
  call void @qemu_co_mutex_unlock(ptr noundef %lock2)
  %11 = load i32, ptr %ret, align 4
  ret i32 %11
}