; Function Attrs: nounwind sspstrong uwtable
define internal range(i32 -2147483648, 1) i32 @vmdk_co_pwrite_zeroes(ptr noundef %bs, i64 noundef %offset, i64 noundef %bytes, i32 %flags) #0 {
entry:
  %opaque = getelementptr inbounds nuw i8, ptr %bs, i64 24
  %0 = load ptr, ptr %opaque, align 8
  tail call void @qemu_co_mutex_lock(ptr noundef %0) #15
  %call = tail call i32 @vmdk_pwritev(ptr noundef %bs, i64 noundef %offset, i64 noundef %bytes, ptr noundef null, i1 noundef zeroext true, i1 noundef zeroext true)
  %tobool.not = icmp eq i32 %call, 0
  br i1 %tobool.not, label %if.then, label %if.end

if.then:                                          ; preds = %entry
  %call1 = tail call i32 @vmdk_pwritev(ptr noundef nonnull %bs, i64 noundef %offset, i64 noundef %bytes, ptr noundef null, i1 noundef zeroext true, i1 noundef zeroext false)
  br label %if.end

if.end:                                           ; preds = %if.then, %entry
  %ret.0 = phi i32 [ %call, %entry ], [ %call1, %if.then ]
  tail call void @qemu_co_mutex_unlock(ptr noundef %0) #15
  ret i32 %ret.0
}